; Listing generated by Microsoft (R) Optimizing Compiler Version 16.00.30319.01 

	TITLE	C:\Users\CD2\Desktop\Ikemen-Plus-Ultra\src\lib\alpha\mesdialog\mesdialog\zlib-1.2.8\compress.c
	.686P
	.XMM
	include listing.inc
	.model	flat

INCLUDELIB OLDNAMES

PUBLIC	??_C@_05IAIEPMAK@1?42?48?$AA@			; `string'
;	COMDAT ??_C@_05IAIEPMAK@1?42?48?$AA@
CONST	SEGMENT
??_C@_05IAIEPMAK@1?42?48?$AA@ DB '1.2.8', 00H		; `string'
PUBLIC	_compressBound@4
; Function compile flags: /Ogtp
; File c:\users\cd2\desktop\ikemen-plus-ultra\src\lib\alpha\mesdialog\mesdialog\zlib-1.2.8\compress.c
;	COMDAT _compressBound@4
_TEXT	SEGMENT
_sourceLen$ = 8						; size = 4
_compressBound@4 PROC					; COMDAT

; 77   : {

  00000	55		 push	 ebp
  00001	8b ec		 mov	 ebp, esp

; 78   :     return sourceLen + (sourceLen >> 12) + (sourceLen >> 14) +
; 79   :            (sourceLen >> 25) + 13;

  00003	8b 45 08	 mov	 eax, DWORD PTR _sourceLen$[ebp]
  00006	8b d0		 mov	 edx, eax
  00008	8b c8		 mov	 ecx, eax
  0000a	c1 ea 0e	 shr	 edx, 14			; 0000000eH
  0000d	03 d0		 add	 edx, eax
  0000f	c1 e9 19	 shr	 ecx, 25			; 00000019H
  00012	c1 e8 0c	 shr	 eax, 12			; 0000000cH
  00015	03 d1		 add	 edx, ecx
  00017	8d 44 10 0d	 lea	 eax, DWORD PTR [eax+edx+13]

; 80   : }

  0001b	5d		 pop	 ebp
  0001c	c2 04 00	 ret	 4
_compressBound@4 ENDP
PUBLIC	_compress2@20
; Function compile flags: /Ogtp
;	COMDAT _compress2@20
_TEXT	SEGMENT
_stream$ = -56						; size = 56
_dest$ = 8						; size = 4
_destLen$ = 12						; size = 4
_source$ = 16						; size = 4
_sourceLen$ = 20					; size = 4
_level$ = 24						; size = 4
_compress2@20 PROC					; COMDAT

; 28   : {

  00000	55		 push	 ebp
  00001	8b ec		 mov	 ebp, esp
  00003	83 e4 f8	 and	 esp, -8			; fffffff8H
  00006	83 ec 38	 sub	 esp, 56			; 00000038H

; 29   :     z_stream stream;
; 30   :     int err;
; 31   : 
; 32   :     stream.next_in = (z_const Bytef *)source;
; 33   :     stream.avail_in = (uInt)sourceLen;

  00009	8b 4d 14	 mov	 ecx, DWORD PTR _sourceLen$[ebp]

; 34   : #ifdef MAXSEG_64K
; 35   :     /* Check for source > 64K on 16-bit machine: */
; 36   :     if ((uLong)stream.avail_in != sourceLen) return Z_BUF_ERROR;
; 37   : #endif
; 38   :     stream.next_out = dest;

  0000c	8b 55 08	 mov	 edx, DWORD PTR _dest$[ebp]
  0000f	8b 45 10	 mov	 eax, DWORD PTR _source$[ebp]
  00012	53		 push	 ebx

; 39   :     stream.avail_out = (uInt)*destLen;

  00013	8b 5d 0c	 mov	 ebx, DWORD PTR _destLen$[ebp]
  00016	56		 push	 esi

; 40   :     if ((uLong)stream.avail_out != *destLen) return Z_BUF_ERROR;
; 41   : 
; 42   :     stream.zalloc = (alloc_func)0;
; 43   :     stream.zfree = (free_func)0;
; 44   :     stream.opaque = (voidpf)0;
; 45   : 
; 46   :     err = deflateInit(&stream, level);

  00017	6a 38		 push	 56			; 00000038H
  00019	89 4c 24 10	 mov	 DWORD PTR _stream$[esp+72], ecx
  0001d	8b 4d 18	 mov	 ecx, DWORD PTR _level$[ebp]
  00020	68 00 00 00 00	 push	 OFFSET ??_C@_05IAIEPMAK@1?42?48?$AA@
  00025	89 54 24 1c	 mov	 DWORD PTR _stream$[esp+84], edx
  00029	89 44 24 10	 mov	 DWORD PTR _stream$[esp+72], eax
  0002d	8b 03		 mov	 eax, DWORD PTR [ebx]
  0002f	51		 push	 ecx
  00030	8d 54 24 14	 lea	 edx, DWORD PTR _stream$[esp+76]
  00034	52		 push	 edx
  00035	89 44 24 28	 mov	 DWORD PTR _stream$[esp+96], eax
  00039	c7 44 24 38 00
	00 00 00	 mov	 DWORD PTR _stream$[esp+112], 0
  00041	c7 44 24 3c 00
	00 00 00	 mov	 DWORD PTR _stream$[esp+116], 0
  00049	c7 44 24 40 00
	00 00 00	 mov	 DWORD PTR _stream$[esp+120], 0
  00051	e8 00 00 00 00	 call	 _deflateInit_@16

; 47   :     if (err != Z_OK) return err;

  00056	85 c0		 test	 eax, eax
  00058	75 40		 jne	 SHORT $LN4@compress2

; 48   : 
; 49   :     err = deflate(&stream, Z_FINISH);

  0005a	6a 04		 push	 4
  0005c	8d 44 24 0c	 lea	 eax, DWORD PTR _stream$[esp+68]
  00060	50		 push	 eax
  00061	e8 00 00 00 00	 call	 _deflate@8
  00066	8b f0		 mov	 esi, eax

; 50   :     if (err != Z_STREAM_END) {

  00068	83 fe 01	 cmp	 esi, 1
  0006b	74 1d		 je	 SHORT $LN1@compress2

; 51   :         deflateEnd(&stream);

  0006d	8d 4c 24 08	 lea	 ecx, DWORD PTR _stream$[esp+64]
  00071	51		 push	 ecx
  00072	e8 00 00 00 00	 call	 _deflateEnd@4

; 52   :         return err == Z_OK ? Z_BUF_ERROR : err;

  00077	b8 fb ff ff ff	 mov	 eax, -5			; fffffffbH
  0007c	85 f6		 test	 esi, esi
  0007e	74 1a		 je	 SHORT $LN4@compress2
  00080	8b c6		 mov	 eax, esi

; 57   :     return err;
; 58   : }

  00082	5e		 pop	 esi
  00083	5b		 pop	 ebx
  00084	8b e5		 mov	 esp, ebp
  00086	5d		 pop	 ebp
  00087	c2 14 00	 ret	 20			; 00000014H
$LN1@compress2:

; 53   :     }
; 54   :     *destLen = stream.total_out;

  0008a	8b 54 24 1c	 mov	 edx, DWORD PTR _stream$[esp+84]

; 55   : 
; 56   :     err = deflateEnd(&stream);

  0008e	8d 44 24 08	 lea	 eax, DWORD PTR _stream$[esp+64]
  00092	50		 push	 eax
  00093	89 13		 mov	 DWORD PTR [ebx], edx
  00095	e8 00 00 00 00	 call	 _deflateEnd@4
$LN4@compress2:

; 57   :     return err;
; 58   : }

  0009a	5e		 pop	 esi
  0009b	5b		 pop	 ebx
  0009c	8b e5		 mov	 esp, ebp
  0009e	5d		 pop	 ebp
  0009f	c2 14 00	 ret	 20			; 00000014H
_compress2@20 ENDP
PUBLIC	_compress@16
; Function compile flags: /Ogtp
;	COMDAT _compress@16
_TEXT	SEGMENT
_dest$ = 8						; size = 4
_destLen$ = 12						; size = 4
_source$ = 16						; size = 4
_sourceLen$ = 20					; size = 4
_compress@16 PROC					; COMDAT

; 67   : {

  00000	55		 push	 ebp
  00001	8b ec		 mov	 ebp, esp

; 68   :     return compress2(dest, destLen, source, sourceLen, Z_DEFAULT_COMPRESSION);

  00003	8b 45 14	 mov	 eax, DWORD PTR _sourceLen$[ebp]
  00006	8b 4d 10	 mov	 ecx, DWORD PTR _source$[ebp]
  00009	8b 55 0c	 mov	 edx, DWORD PTR _destLen$[ebp]
  0000c	6a ff		 push	 -1
  0000e	50		 push	 eax
  0000f	8b 45 08	 mov	 eax, DWORD PTR _dest$[ebp]
  00012	51		 push	 ecx
  00013	52		 push	 edx
  00014	50		 push	 eax
  00015	e8 00 00 00 00	 call	 _compress2@20

; 69   : }

  0001a	5d		 pop	 ebp
  0001b	c2 10 00	 ret	 16			; 00000010H
_compress@16 ENDP
END
