; Listing generated by Microsoft (R) Optimizing Compiler Version 16.00.30319.01 

	TITLE	C:\Users\CD2\Desktop\Ikemen-Plus-Ultra\src\lib\alpha\mesdialog\mesdialog\zlib-1.2.8\gzclose.c
	.686P
	.XMM
	include listing.inc
	.model	flat

INCLUDELIB OLDNAMES

PUBLIC	_gzclose@4
; Function compile flags: /Ogtp
; File c:\users\cd2\desktop\ikemen-plus-ultra\src\lib\alpha\mesdialog\mesdialog\zlib-1.2.8\gzclose.c
;	COMDAT _gzclose@4
_TEXT	SEGMENT
_file$ = 8						; size = 4
_gzclose@4 PROC						; COMDAT

; 13   : {

  00000	55		 push	 ebp
  00001	8b ec		 mov	 ebp, esp

; 14   : #ifndef NO_GZCOMPRESS
; 15   :     gz_statep state;
; 16   : 
; 17   :     if (file == NULL)

  00003	8b 45 08	 mov	 eax, DWORD PTR _file$[ebp]
  00006	85 c0		 test	 eax, eax
  00008	75 09		 jne	 SHORT $LN1@gzclose

; 18   :         return Z_STREAM_ERROR;

  0000a	b8 fe ff ff ff	 mov	 eax, -2			; fffffffeH

; 22   : #else
; 23   :     return gzclose_r(file);
; 24   : #endif
; 25   : }

  0000f	5d		 pop	 ebp
  00010	c2 04 00	 ret	 4
$LN1@gzclose:

; 19   :     state = (gz_statep)file;
; 20   : 
; 21   :     return state->mode == GZ_READ ? gzclose_r(file) : gzclose_w(file);

  00013	81 78 10 4f 1c
	00 00		 cmp	 DWORD PTR [eax+16], 7247 ; 00001c4fH
  0001a	50		 push	 eax
  0001b	75 09		 jne	 SHORT $LN4@gzclose
  0001d	e8 00 00 00 00	 call	 _gzclose_r@4

; 22   : #else
; 23   :     return gzclose_r(file);
; 24   : #endif
; 25   : }

  00022	5d		 pop	 ebp
  00023	c2 04 00	 ret	 4
$LN4@gzclose:

; 19   :     state = (gz_statep)file;
; 20   : 
; 21   :     return state->mode == GZ_READ ? gzclose_r(file) : gzclose_w(file);

  00026	e8 00 00 00 00	 call	 _gzclose_w@4

; 22   : #else
; 23   :     return gzclose_r(file);
; 24   : #endif
; 25   : }

  0002b	5d		 pop	 ebp
  0002c	c2 04 00	 ret	 4
_gzclose@4 ENDP
END
